; ModuleID = 'probe1.3a1fbbbh-cgu.0'
source_filename = "probe1.3a1fbbbh-cgu.0"
target datalayout = "e-m:o-p270:32:32-p271:32:32-p272:64:64-i64:64-f80:128-n8:16:32:64-S128"
target triple = "x86_64-apple-macosx10.7.0"

%"std::iter::Rev<std::iter::StepBy<std::ops::Range<i32>>>" = type { [0 x i64], %"std::iter::StepBy<std::ops::Range<i32>>", [0 x i64] }
%"std::iter::StepBy<std::ops::Range<i32>>" = type { [0 x i64], i64, [0 x i32], { i32, i32 }, [0 x i8], i8, [7 x i8] }
%"std::panic::Location" = type { [0 x i64], { [0 x i8]*, i64 }, [0 x i32], i32, [0 x i32], i32, [0 x i32] }
%"unwind::libunwind::_Unwind_Exception" = type { [0 x i64], i64, [0 x i64], void (i32, %"unwind::libunwind::_Unwind_Exception"*)*, [0 x i64], [6 x i64], [0 x i64] }
%"unwind::libunwind::_Unwind_Context" = type { [0 x i8] }

@alloc18 = private unnamed_addr constant <{ [27 x i8] }> <{ [27 x i8] c"assertion failed: step != 0" }>, align 1
@alloc19 = private unnamed_addr constant <{ [124 x i8] }> <{ [124 x i8] c"/Users/lukepearson/.rustup/toolchains/nightly-x86_64-apple-darwin/lib/rustlib/src/rust/library/core/src/iter/adapters/mod.rs" }>, align 1
@alloc20 = private unnamed_addr constant <{ i8*, [16 x i8] }> <{ i8* getelementptr inbounds (<{ [124 x i8] }>, <{ [124 x i8] }>* @alloc19, i32 0, i32 0, i32 0), [16 x i8] c"|\00\00\00\00\00\00\00]\02\00\00\09\00\00\00" }>, align 8

; core::iter::traits::iterator::Iterator::rev
; Function Attrs: inlinehint uwtable
define void @_ZN4core4iter6traits8iterator8Iterator3rev17h0e564ddb7231f036E(%"std::iter::Rev<std::iter::StepBy<std::ops::Range<i32>>>"* noalias nocapture sret dereferenceable(24) %0, %"std::iter::StepBy<std::ops::Range<i32>>"* noalias nocapture dereferenceable(24) %self) unnamed_addr #0 {
start:
  %_2 = alloca %"std::iter::StepBy<std::ops::Range<i32>>", align 8
  %1 = bitcast %"std::iter::StepBy<std::ops::Range<i32>>"* %_2 to i8*
  %2 = bitcast %"std::iter::StepBy<std::ops::Range<i32>>"* %self to i8*
  call void @llvm.memcpy.p0i8.p0i8.i64(i8* align 8 %1, i8* align 8 %2, i64 24, i1 false)
; call core::iter::adapters::Rev<T>::new
  call void @"_ZN4core4iter8adapters12Rev$LT$T$GT$3new17h4e4d5d54d551903bE"(%"std::iter::Rev<std::iter::StepBy<std::ops::Range<i32>>>"* noalias nocapture sret dereferenceable(24) %0, %"std::iter::StepBy<std::ops::Range<i32>>"* noalias nocapture dereferenceable(24) %_2)
  br label %bb1

bb1:                                              ; preds = %start
  ret void
}

; core::iter::traits::iterator::Iterator::step_by
; Function Attrs: inlinehint uwtable
define void @_ZN4core4iter6traits8iterator8Iterator7step_by17h8dab9d9e01c76617E(%"std::iter::StepBy<std::ops::Range<i32>>"* noalias nocapture sret dereferenceable(24) %0, i32 %self.0, i32 %self.1, i64 %step) unnamed_addr #0 {
start:
; call core::iter::adapters::StepBy<I>::new
  call void @"_ZN4core4iter8adapters15StepBy$LT$I$GT$3new17h44659fd3eab197a9E"(%"std::iter::StepBy<std::ops::Range<i32>>"* noalias nocapture sret dereferenceable(24) %0, i32 %self.0, i32 %self.1, i64 %step)
  br label %bb1

bb1:                                              ; preds = %start
  ret void
}

; core::iter::adapters::Rev<T>::new
; Function Attrs: uwtable
define void @"_ZN4core4iter8adapters12Rev$LT$T$GT$3new17h4e4d5d54d551903bE"(%"std::iter::Rev<std::iter::StepBy<std::ops::Range<i32>>>"* noalias nocapture sret dereferenceable(24) %0, %"std::iter::StepBy<std::ops::Range<i32>>"* noalias nocapture dereferenceable(24) %iter) unnamed_addr #1 {
start:
  %_2 = alloca %"std::iter::StepBy<std::ops::Range<i32>>", align 8
  %1 = bitcast %"std::iter::StepBy<std::ops::Range<i32>>"* %_2 to i8*
  %2 = bitcast %"std::iter::StepBy<std::ops::Range<i32>>"* %iter to i8*
  call void @llvm.memcpy.p0i8.p0i8.i64(i8* align 8 %1, i8* align 8 %2, i64 24, i1 false)
  %3 = bitcast %"std::iter::Rev<std::iter::StepBy<std::ops::Range<i32>>>"* %0 to %"std::iter::StepBy<std::ops::Range<i32>>"*
  %4 = bitcast %"std::iter::StepBy<std::ops::Range<i32>>"* %3 to i8*
  %5 = bitcast %"std::iter::StepBy<std::ops::Range<i32>>"* %_2 to i8*
  call void @llvm.memcpy.p0i8.p0i8.i64(i8* align 8 %4, i8* align 8 %5, i64 24, i1 false)
  ret void
}

; core::iter::adapters::StepBy<I>::new
; Function Attrs: uwtable
define void @"_ZN4core4iter8adapters15StepBy$LT$I$GT$3new17h44659fd3eab197a9E"(%"std::iter::StepBy<std::ops::Range<i32>>"* noalias nocapture sret dereferenceable(24) %0, i32 %iter.0, i32 %iter.1, i64 %step) unnamed_addr #1 personality i32 (i32, i32, i64, %"unwind::libunwind::_Unwind_Exception"*, %"unwind::libunwind::_Unwind_Context"*)* @rust_eh_personality {
start:
  %1 = alloca { i8*, i32 }, align 8
  %_4 = icmp ne i64 %step, 0
  %_3 = xor i1 %_4, true
  br i1 %_3, label %bb3, label %bb2

bb1:                                              ; preds = %bb4
  %2 = bitcast { i8*, i32 }* %1 to i8**
  %3 = load i8*, i8** %2, align 8
  %4 = getelementptr inbounds { i8*, i32 }, { i8*, i32 }* %1, i32 0, i32 1
  %5 = load i32, i32* %4, align 8
  %6 = insertvalue { i8*, i32 } undef, i8* %3, 0
  %7 = insertvalue { i8*, i32 } %6, i32 %5, 1
  resume { i8*, i32 } %7

bb2:                                              ; preds = %start
  %_7 = sub i64 %step, 1
  %8 = getelementptr inbounds %"std::iter::StepBy<std::ops::Range<i32>>", %"std::iter::StepBy<std::ops::Range<i32>>"* %0, i32 0, i32 3
  %9 = getelementptr inbounds { i32, i32 }, { i32, i32 }* %8, i32 0, i32 0
  store i32 %iter.0, i32* %9, align 8
  %10 = getelementptr inbounds { i32, i32 }, { i32, i32 }* %8, i32 0, i32 1
  store i32 %iter.1, i32* %10, align 4
  %11 = bitcast %"std::iter::StepBy<std::ops::Range<i32>>"* %0 to i64*
  store i64 %_7, i64* %11, align 8
  %12 = getelementptr inbounds %"std::iter::StepBy<std::ops::Range<i32>>", %"std::iter::StepBy<std::ops::Range<i32>>"* %0, i32 0, i32 5
  store i8 1, i8* %12, align 8
  ret void

bb3:                                              ; preds = %start
; invoke core::panicking::panic
  invoke void @_ZN4core9panicking5panic17hbacf203cc1296275E([0 x i8]* noalias nonnull readonly align 1 bitcast (<{ [27 x i8] }>* @alloc18 to [0 x i8]*), i64 27, %"std::panic::Location"* noalias readonly align 8 dereferenceable(24) bitcast (<{ i8*, [16 x i8] }>* @alloc20 to %"std::panic::Location"*))
          to label %unreachable unwind label %cleanup

bb4:                                              ; preds = %cleanup
  br label %bb1

unreachable:                                      ; preds = %bb3
  unreachable

cleanup:                                          ; preds = %bb3
  %13 = landingpad { i8*, i32 }
          cleanup
  %14 = extractvalue { i8*, i32 } %13, 0
  %15 = extractvalue { i8*, i32 } %13, 1
  %16 = getelementptr inbounds { i8*, i32 }, { i8*, i32 }* %1, i32 0, i32 0
  store i8* %14, i8** %16, align 8
  %17 = getelementptr inbounds { i8*, i32 }, { i8*, i32 }* %1, i32 0, i32 1
  store i32 %15, i32* %17, align 8
  br label %bb4
}

; probe1::probe
; Function Attrs: uwtable
define void @_ZN6probe15probe17hcc631d850158b26eE() unnamed_addr #1 {
start:
  %_3 = alloca { i32, i32 }, align 4
  %_2 = alloca %"std::iter::StepBy<std::ops::Range<i32>>", align 8
  %_1 = alloca %"std::iter::Rev<std::iter::StepBy<std::ops::Range<i32>>>", align 8
  %0 = bitcast { i32, i32 }* %_3 to i32*
  store i32 0, i32* %0, align 4
  %1 = getelementptr inbounds { i32, i32 }, { i32, i32 }* %_3, i32 0, i32 1
  store i32 10, i32* %1, align 4
  %2 = getelementptr inbounds { i32, i32 }, { i32, i32 }* %_3, i32 0, i32 0
  %3 = load i32, i32* %2, align 4
  %4 = getelementptr inbounds { i32, i32 }, { i32, i32 }* %_3, i32 0, i32 1
  %5 = load i32, i32* %4, align 4
; call core::iter::traits::iterator::Iterator::step_by
  call void @_ZN4core4iter6traits8iterator8Iterator7step_by17h8dab9d9e01c76617E(%"std::iter::StepBy<std::ops::Range<i32>>"* noalias nocapture sret dereferenceable(24) %_2, i32 %3, i32 %5, i64 2)
  br label %bb1

bb1:                                              ; preds = %start
; call core::iter::traits::iterator::Iterator::rev
  call void @_ZN4core4iter6traits8iterator8Iterator3rev17h0e564ddb7231f036E(%"std::iter::Rev<std::iter::StepBy<std::ops::Range<i32>>>"* noalias nocapture sret dereferenceable(24) %_1, %"std::iter::StepBy<std::ops::Range<i32>>"* noalias nocapture dereferenceable(24) %_2)
  br label %bb2

bb2:                                              ; preds = %bb1
  ret void
}

; Function Attrs: argmemonly nounwind willreturn
declare void @llvm.memcpy.p0i8.p0i8.i64(i8* noalias nocapture writeonly, i8* noalias nocapture readonly, i64, i1 immarg) #2

; Function Attrs: nounwind uwtable
declare i32 @rust_eh_personality(i32, i32, i64, %"unwind::libunwind::_Unwind_Exception"*, %"unwind::libunwind::_Unwind_Context"*) unnamed_addr #3

; core::panicking::panic
; Function Attrs: cold noinline noreturn uwtable
declare void @_ZN4core9panicking5panic17hbacf203cc1296275E([0 x i8]* noalias nonnull readonly align 1, i64, %"std::panic::Location"* noalias readonly align 8 dereferenceable(24)) unnamed_addr #4

attributes #0 = { inlinehint uwtable "frame-pointer"="all" "probe-stack"="__rust_probestack" "target-cpu"="core2" }
attributes #1 = { uwtable "frame-pointer"="all" "probe-stack"="__rust_probestack" "target-cpu"="core2" }
attributes #2 = { argmemonly nounwind willreturn }
attributes #3 = { nounwind uwtable "frame-pointer"="all" "probe-stack"="__rust_probestack" "target-cpu"="core2" }
attributes #4 = { cold noinline noreturn uwtable "frame-pointer"="all" "probe-stack"="__rust_probestack" "target-cpu"="core2" }

!llvm.module.flags = !{!0}

!0 = !{i32 7, !"PIC Level", i32 2}
